; Function Attrs: nounwind uwtable
define i32 @Bmc_LoadGetSatVar(ptr noundef readonly captures(none) %0, i32 noundef %1) local_unnamed_addr #0 {
  %3 = getelementptr inbounds nuw i8, ptr %0, i64 8
  %4 = load ptr, ptr %3, align 8, !tbaa !3
  %5 = getelementptr i8, ptr %4, i64 32
  %.val = load ptr, ptr %5, align 8, !tbaa !13
  %6 = sext i32 %1 to i64
  %7 = getelementptr inbounds %struct.Gia_Obj_t_, ptr %.val, i64 %6, i32 1
  %8 = load i32, ptr %7, align 4, !tbaa !32
  %9 = icmp eq i32 %8, 0
  br i1 %9, label %10, label %47

10:                                               ; preds = %2
  %11 = getelementptr inbounds nuw i8, ptr %0, i64 24
  %12 = load ptr, ptr %11, align 8, !tbaa !34
  %13 = getelementptr i8, ptr %12, i64 4
  %.val9 = load i32, ptr %13, align 4, !tbaa !35
  store i32 %.val9, ptr %7, align 4, !tbaa !32
  %14 = load i32, ptr %12, align 8, !tbaa !36
  %15 = icmp eq i32 %.val9, %14
  br i1 %15, label %16, label %.Vec_IntGrow.exit10_crit_edge.i

.Vec_IntGrow.exit10_crit_edge.i:                  ; preds = %10
  %.phi.trans.insert.i = getelementptr inbounds nuw i8, ptr %12, i64 8
  %.pre.i = load ptr, ptr %.phi.trans.insert.i, align 8, !tbaa !37
  br label %Vec_IntPush.exit

16:                                               ; preds = %10
  %17 = icmp slt i32 %.val9, 16
  br i1 %17, label %18, label %26

18:                                               ; preds = %16
  %19 = getelementptr inbounds nuw i8, ptr %12, i64 8
  %20 = load ptr, ptr %19, align 8, !tbaa !37
  %.not9.i.i = icmp eq ptr %20, null
  br i1 %.not9.i.i, label %23, label %21

21:                                               ; preds = %18
  %22 = tail call dereferenceable_or_null(64) ptr @realloc(ptr noundef nonnull %20, i64 noundef 64) #12
  br label %Vec_IntGrow.exit.i

23:                                               ; preds = %18
  %24 = tail call noalias dereferenceable_or_null(64) ptr @malloc(i64 noundef 64) #13
  br label %Vec_IntGrow.exit.i

Vec_IntGrow.exit.i:                               ; preds = %23, %21
  %25 = phi ptr [ %22, %21 ], [ %24, %23 ]
  store ptr %25, ptr %19, align 8, !tbaa !37
  store i32 16, ptr %12, align 8, !tbaa !36
  br label %Vec_IntPush.exit

26:                                               ; preds = %16
  %27 = shl nuw nsw i32 %.val9, 1
  %28 = getelementptr inbounds nuw i8, ptr %12, i64 8
  %29 = load ptr, ptr %28, align 8, !tbaa !37
  %.not9.i9.i = icmp eq ptr %29, null
  %30 = zext nneg i32 %27 to i64
  %31 = shl nuw nsw i64 %30, 2
  br i1 %.not9.i9.i, label %34, label %32

32:                                               ; preds = %26
  %33 = tail call ptr @realloc(ptr noundef nonnull %29, i64 noundef %31) #12
  br label %36

34:                                               ; preds = %26
  %35 = tail call noalias ptr @malloc(i64 noundef %31) #13
  br label %36

36:                                               ; preds = %34, %32
  %37 = phi ptr [ %33, %32 ], [ %35, %34 ]
  store ptr %37, ptr %28, align 8, !tbaa !37
  store i32 %27, ptr %12, align 8, !tbaa !36
  br label %Vec_IntPush.exit

Vec_IntPush.exit:                                 ; preds = %.Vec_IntGrow.exit10_crit_edge.i, %Vec_IntGrow.exit.i, %36
  %38 = phi ptr [ %.pre.i, %.Vec_IntGrow.exit10_crit_edge.i ], [ %37, %36 ], [ %25, %Vec_IntGrow.exit.i ]
  %39 = load i32, ptr %13, align 4, !tbaa !35
  %40 = add nsw i32 %39, 1
  store i32 %40, ptr %13, align 4, !tbaa !35
  %41 = sext i32 %39 to i64
  %42 = getelementptr inbounds i32, ptr %38, i64 %41
  store i32 %1, ptr %42, align 4, !tbaa !38
  %43 = getelementptr inbounds nuw i8, ptr %0, i64 16
  %44 = load ptr, ptr %43, align 8, !tbaa !39
  %45 = load ptr, ptr %11, align 8, !tbaa !34
  %46 = getelementptr i8, ptr %45, i64 4
  %.val10 = load i32, ptr %46, align 4, !tbaa !35
  tail call void @sat_solver_setnvars(ptr noundef %44, i32 noundef %.val10) #14
  %.pre = load i32, ptr %7, align 4, !tbaa !32
  br label %47

47:                                               ; preds = %Vec_IntPush.exit, %2
  %48 = phi i32 [ %.pre, %Vec_IntPush.exit ], [ %8, %2 ]
  ret i32 %48
}